target datalayout = "e-m:e-p270:32:32-p271:32:32-p272:64:64-i64:64-i128:128-f80:128-n8:16:32:64-S128"
target triple = "x86_64-unknown-linux-gnu"

%"class.icu_75::MeasureUnit" = type <{ %"class.icu_75::UObject", ptr, i16, i8, [5 x i8] }>
%"class.icu_75::UObject" = type { ptr }
%"class.icu_75::StringPiece" = type <{ ptr, i32, [4 x i8] }>

@_ZN6icu_75L8gOffsetsE = internal constant [24 x i32] [i32 0, i32 2, i32 7, i32 17, i32 27, i32 31, i32 332, i32 343, i32 360, i32 364, i32 373, i32 376, i32 380, i32 388, i32 410, i32 414, i32 429, i32 430, i32 436, i32 447, i32 452, i32 456, i32 458, i32 492], align 16
@.str.1 = private unnamed_addr constant [9 x i8] c"duration\00", align 1

; Function Attrs: mustprogress uwtable
define internal noundef i32 @_ZN6icu_75L12binarySearchEPKPKciiNS_11StringPieceE(ptr noundef %array, i32 noundef %start, i32 noundef %end, ptr %key.coerce0, i32 %key.coerce1) #1 {
entry:
  %retval = alloca i32, align 4
  %key = alloca %"class.icu_75::StringPiece", align 8
  %array.addr = alloca ptr, align 8
  %start.addr = alloca i32, align 4
  %end.addr = alloca i32, align 4
  %mid = alloca i32, align 4
  %cmp1 = alloca i32, align 4
  %ref.tmp = alloca %"class.icu_75::StringPiece", align 8
  %agg.tmp = alloca %"class.icu_75::StringPiece", align 8
  %0 = getelementptr inbounds { ptr, i32 }, ptr %key, i32 0, i32 0
  store ptr %key.coerce0, ptr %0, align 8
  %1 = getelementptr inbounds { ptr, i32 }, ptr %key, i32 0, i32 1
  store i32 %key.coerce1, ptr %1, align 8
  store ptr %array, ptr %array.addr, align 8
  store i32 %start, ptr %start.addr, align 4
  store i32 %end, ptr %end.addr, align 4
  br label %while.cond

while.cond:                                       ; preds = %if.end6, %if.then, %entry
  %2 = load i32, ptr %start.addr, align 4
  %3 = load i32, ptr %end.addr, align 4
  %cmp = icmp slt i32 %2, %3
  br i1 %cmp, label %while.body, label %while.end

while.body:                                       ; preds = %while.cond
  %4 = load i32, ptr %start.addr, align 4
  %5 = load i32, ptr %end.addr, align 4
  %add = add nsw i32 %4, %5
  %div = sdiv i32 %add, 2
  store i32 %div, ptr %mid, align 4
  %6 = load ptr, ptr %array.addr, align 8
  %7 = load i32, ptr %mid, align 4
  %idxprom = sext i32 %7 to i64
  %arrayidx = getelementptr inbounds ptr, ptr %6, i64 %idxprom
  %8 = load ptr, ptr %arrayidx, align 8
  call void @_ZN6icu_7511StringPieceC1EPKc(ptr noundef nonnull align 8 dereferenceable(12) %ref.tmp, ptr noundef %8)
  call void @llvm.memcpy.p0.p0.i64(ptr align 8 %agg.tmp, ptr align 8 %key, i64 16, i1 false)
  %9 = getelementptr inbounds { ptr, i32 }, ptr %agg.tmp, i32 0, i32 0
  %10 = load ptr, ptr %9, align 8
  %11 = getelementptr inbounds { ptr, i32 }, ptr %agg.tmp, i32 0, i32 1
  %12 = load i32, ptr %11, align 8
  %call = call noundef i32 @_ZN6icu_7511StringPiece7compareES0_(ptr noundef nonnull align 8 dereferenceable(12) %ref.tmp, ptr %10, i32 %12)
  store i32 %call, ptr %cmp1, align 4
  %13 = load i32, ptr %cmp1, align 4
  %cmp2 = icmp slt i32 %13, 0
  br i1 %cmp2, label %if.then, label %if.end

if.then:                                          ; preds = %while.body
  %14 = load i32, ptr %mid, align 4
  %add3 = add nsw i32 %14, 1
  store i32 %add3, ptr %start.addr, align 4
  br label %while.cond, !llvm.loop !10

if.end:                                           ; preds = %while.body
  %15 = load i32, ptr %cmp1, align 4
  %cmp4 = icmp eq i32 %15, 0
  br i1 %cmp4, label %if.then5, label %if.end6

if.then5:                                         ; preds = %if.end
  %16 = load i32, ptr %mid, align 4
  store i32 %16, ptr %retval, align 4
  br label %return

if.end6:                                          ; preds = %if.end
  %17 = load i32, ptr %mid, align 4
  store i32 %17, ptr %end.addr, align 4
  br label %while.cond, !llvm.loop !10

while.end:                                        ; preds = %while.cond
  store i32 -1, ptr %retval, align 4
  br label %return

return:                                           ; preds = %while.end, %if.then5
  %18 = load i32, ptr %retval, align 4
  ret i32 %18
}

; Function Attrs: mustprogress uwtable
define void @_ZN6icu_7511MeasureUnit8initTimeEPKc(ptr noundef nonnull align 8 dereferenceable(19) %this, ptr noundef %timeId) #1 align 2 {
entry:
  %this.addr = alloca ptr, align 8
  %timeId.addr = alloca ptr, align 8
  %result = alloca i32, align 4
  %agg.tmp = alloca %"class.icu_75::StringPiece", align 8
  %agg.tmp7 = alloca %"class.icu_75::StringPiece", align 8
  store ptr %this, ptr %this.addr, align 8
  store ptr %timeId, ptr %timeId.addr, align 8
  %this1 = load ptr, ptr %this.addr, align 8
  call void @_ZN6icu_7511StringPieceC1EPKc(ptr noundef nonnull align 8 dereferenceable(12) %agg.tmp, ptr noundef @.str.1)
  %0 = getelementptr inbounds { ptr, i32 }, ptr %agg.tmp, i32 0, i32 0
  %1 = load ptr, ptr %0, align 8
  %2 = getelementptr inbounds { ptr, i32 }, ptr %agg.tmp, i32 0, i32 1
  %3 = load i32, ptr %2, align 8
  %call = call noundef i32 @_ZN6icu_75L12binarySearchEPKPKciiNS_11StringPieceE(ptr noundef @_ZN6icu_75L6gTypesE, i32 noundef 0, i32 noundef 23, ptr %1, i32 %3)
  store i32 %call, ptr %result, align 4
  %4 = load i32, ptr %result, align 4
  %conv = trunc i32 %4 to i8
  %fTypeId = getelementptr inbounds %"class.icu_75::MeasureUnit", ptr %this1, i32 0, i32 3
  store i8 %conv, ptr %fTypeId, align 2
  %fTypeId2 = getelementptr inbounds %"class.icu_75::MeasureUnit", ptr %this1, i32 0, i32 3
  %5 = load i8, ptr %fTypeId2, align 2
  %idxprom = sext i8 %5 to i64
  %arrayidx = getelementptr inbounds [24 x i32], ptr @_ZN6icu_75L8gOffsetsE, i64 0, i64 %idxprom
  %6 = load i32, ptr %arrayidx, align 4
  %fTypeId3 = getelementptr inbounds %"class.icu_75::MeasureUnit", ptr %this1, i32 0, i32 3
  %7 = load i8, ptr %fTypeId3, align 2
  %conv4 = sext i8 %7 to i32
  %add = add nsw i32 %conv4, 1
  %idxprom5 = sext i32 %add to i64
  %arrayidx6 = getelementptr inbounds [24 x i32], ptr @_ZN6icu_75L8gOffsetsE, i64 0, i64 %idxprom5
  %8 = load i32, ptr %arrayidx6, align 4
  %9 = load ptr, ptr %timeId.addr, align 8
  call void @_ZN6icu_7511StringPieceC1EPKc(ptr noundef nonnull align 8 dereferenceable(12) %agg.tmp7, ptr noundef %9)
  %10 = getelementptr inbounds { ptr, i32 }, ptr %agg.tmp7, i32 0, i32 0
  %11 = load ptr, ptr %10, align 8
  %12 = getelementptr inbounds { ptr, i32 }, ptr %agg.tmp7, i32 0, i32 1
  %13 = load i32, ptr %12, align 8
  %call8 = call noundef i32 @_ZN6icu_75L12binarySearchEPKPKciiNS_11StringPieceE(ptr noundef @_ZN6icu_75L9gSubTypesE, i32 noundef %6, i32 noundef %8, ptr %11, i32 %13)
  store i32 %call8, ptr %result, align 4
  %14 = load i32, ptr %result, align 4
  %fTypeId9 = getelementptr inbounds %"class.icu_75::MeasureUnit", ptr %this1, i32 0, i32 3
  %15 = load i8, ptr %fTypeId9, align 2
  %idxprom10 = sext i8 %15 to i64
  %arrayidx11 = getelementptr inbounds [24 x i32], ptr @_ZN6icu_75L8gOffsetsE, i64 0, i64 %idxprom10
  %16 = load i32, ptr %arrayidx11, align 4
  %sub = sub nsw i32 %14, %16
  %conv12 = trunc i32 %sub to i16
  %fSubTypeId = getelementptr inbounds %"class.icu_75::MeasureUnit", ptr %this1, i32 0, i32 2
  store i16 %conv12, ptr %fSubTypeId, align 8
  ret void
}