; Function Attrs: mustprogress uwtable
define void @_ZN6icu_7511MeasureUnit8initTimeEPKc(ptr nocapture noundef nonnull align 8 dereferenceable(19) %this, ptr noundef %timeId) local_unnamed_addr #1 align 2 {
entry:
  %ref.tmp.i2 = alloca %"class.icu_75::StringPiece", align 8
  %ref.tmp.i = alloca %"class.icu_75::StringPiece", align 8
  %agg.tmp = alloca %"class.icu_75::StringPiece", align 8
  %agg.tmp7 = alloca %"class.icu_75::StringPiece", align 8
  call void @_ZN6icu_7511StringPieceC1EPKc(ptr noundef nonnull align 8 dereferenceable(12) %agg.tmp, ptr noundef nonnull @.str.1)
  %0 = load ptr, ptr %agg.tmp, align 8
  %1 = getelementptr inbounds i8, ptr %agg.tmp, i64 8
  %2 = load i32, ptr %1, align 8
  call void @llvm.lifetime.start.p0(i64 16, ptr nonnull %ref.tmp.i)
  br label %while.cond.outer.i

while.cond.outer.i:                               ; preds = %if.end.i, %entry
  %end.addr.0.ph.i = phi i32 [ %div.i, %if.end.i ], [ 23, %entry ]
  %start.addr.0.ph.i = phi i32 [ %start.addr.010.i, %if.end.i ], [ 0, %entry ]
  %cmp9.i = icmp slt i32 %start.addr.0.ph.i, %end.addr.0.ph.i
  br i1 %cmp9.i, label %while.body.i, label %_ZN6icu_75L12binarySearchEPKPKciiNS_11StringPieceE.exit

while.body.i:                                     ; preds = %while.cond.outer.i, %if.then.i
  %start.addr.010.i = phi i32 [ %add3.i, %if.then.i ], [ %start.addr.0.ph.i, %while.cond.outer.i ]
  %add.i = add nsw i32 %start.addr.010.i, %end.addr.0.ph.i
  %div.i = sdiv i32 %add.i, 2
  %idxprom.i = sext i32 %div.i to i64
  %arrayidx.i = getelementptr inbounds ptr, ptr @_ZN6icu_75L6gTypesE, i64 %idxprom.i
  %3 = load ptr, ptr %arrayidx.i, align 8
  call void @_ZN6icu_7511StringPieceC1EPKc(ptr noundef nonnull align 8 dereferenceable(12) %ref.tmp.i, ptr noundef %3)
  %call.i = call noundef i32 @_ZN6icu_7511StringPiece7compareES0_(ptr noundef nonnull align 8 dereferenceable(12) %ref.tmp.i, ptr %0, i32 %2)
  %cmp2.i = icmp slt i32 %call.i, 0
  br i1 %cmp2.i, label %if.then.i, label %if.end.i

if.then.i:                                        ; preds = %while.body.i
  %add3.i = add nsw i32 %div.i, 1
  %cmp.i = icmp slt i32 %add3.i, %end.addr.0.ph.i
  br i1 %cmp.i, label %while.body.i, label %_ZN6icu_75L12binarySearchEPKPKciiNS_11StringPieceE.exit, !llvm.loop !6

if.end.i:                                         ; preds = %while.body.i
  %cmp4.i = icmp eq i32 %call.i, 0
  br i1 %cmp4.i, label %_ZN6icu_75L12binarySearchEPKPKciiNS_11StringPieceE.exit, label %while.cond.outer.i, !llvm.loop !6

_ZN6icu_75L12binarySearchEPKPKciiNS_11StringPieceE.exit: ; preds = %while.cond.outer.i, %if.end.i, %if.then.i
  %retval.0.i = phi i32 [ -1, %if.then.i ], [ %div.i, %if.end.i ], [ -1, %while.cond.outer.i ]
  call void @llvm.lifetime.end.p0(i64 16, ptr nonnull %ref.tmp.i)
  %conv = trunc i32 %retval.0.i to i8
  %fTypeId = getelementptr inbounds i8, ptr %this, i64 18
  store i8 %conv, ptr %fTypeId, align 2
  %idxprom = sext i8 %conv to i64
  %arrayidx = getelementptr inbounds [24 x i32], ptr @_ZN6icu_75L8gOffsetsE, i64 0, i64 %idxprom
  %4 = load i32, ptr %arrayidx, align 4
  %sext = shl i32 %retval.0.i, 24
  %conv4 = ashr exact i32 %sext, 24
  %add = add nsw i32 %conv4, 1
  %idxprom5 = sext i32 %add to i64
  %arrayidx6 = getelementptr inbounds [24 x i32], ptr @_ZN6icu_75L8gOffsetsE, i64 0, i64 %idxprom5
  %5 = load i32, ptr %arrayidx6, align 4
  call void @_ZN6icu_7511StringPieceC1EPKc(ptr noundef nonnull align 8 dereferenceable(12) %agg.tmp7, ptr noundef %timeId)
  %6 = load ptr, ptr %agg.tmp7, align 8
  %7 = getelementptr inbounds i8, ptr %agg.tmp7, i64 8
  %8 = load i32, ptr %7, align 8
  call void @llvm.lifetime.start.p0(i64 16, ptr nonnull %ref.tmp.i2)
  br label %while.cond.outer.i3

while.cond.outer.i3:                              ; preds = %if.end.i16, %_ZN6icu_75L12binarySearchEPKPKciiNS_11StringPieceE.exit
  %end.addr.0.ph.i4 = phi i32 [ %div.i11, %if.end.i16 ], [ %5, %_ZN6icu_75L12binarySearchEPKPKciiNS_11StringPieceE.exit ]
  %start.addr.0.ph.i5 = phi i32 [ %start.addr.010.i9, %if.end.i16 ], [ %4, %_ZN6icu_75L12binarySearchEPKPKciiNS_11StringPieceE.exit ]
  %cmp9.i6 = icmp slt i32 %start.addr.0.ph.i5, %end.addr.0.ph.i4
  br i1 %cmp9.i6, label %while.body.i8, label %_ZN6icu_75L12binarySearchEPKPKciiNS_11StringPieceE.exit21

while.body.i8:                                    ; preds = %while.cond.outer.i3, %if.then.i18
  %start.addr.010.i9 = phi i32 [ %add3.i19, %if.then.i18 ], [ %start.addr.0.ph.i5, %while.cond.outer.i3 ]
  %add.i10 = add nsw i32 %start.addr.010.i9, %end.addr.0.ph.i4
  %div.i11 = sdiv i32 %add.i10, 2
  %idxprom.i12 = sext i32 %div.i11 to i64
  %arrayidx.i13 = getelementptr inbounds ptr, ptr @_ZN6icu_75L9gSubTypesE, i64 %idxprom.i12
  %9 = load ptr, ptr %arrayidx.i13, align 8
  call void @_ZN6icu_7511StringPieceC1EPKc(ptr noundef nonnull align 8 dereferenceable(12) %ref.tmp.i2, ptr noundef %9)
  %call.i14 = call noundef i32 @_ZN6icu_7511StringPiece7compareES0_(ptr noundef nonnull align 8 dereferenceable(12) %ref.tmp.i2, ptr %6, i32 %8)
  %cmp2.i15 = icmp slt i32 %call.i14, 0
  br i1 %cmp2.i15, label %if.then.i18, label %if.end.i16

if.then.i18:                                      ; preds = %while.body.i8
  %add3.i19 = add nsw i32 %div.i11, 1
  %cmp.i20 = icmp slt i32 %add3.i19, %end.addr.0.ph.i4
  br i1 %cmp.i20, label %while.body.i8, label %_ZN6icu_75L12binarySearchEPKPKciiNS_11StringPieceE.exit21, !llvm.loop !6

if.end.i16:                                       ; preds = %while.body.i8
  %cmp4.i17 = icmp eq i32 %call.i14, 0
  br i1 %cmp4.i17, label %_ZN6icu_75L12binarySearchEPKPKciiNS_11StringPieceE.exit21, label %while.cond.outer.i3, !llvm.loop !6

_ZN6icu_75L12binarySearchEPKPKciiNS_11StringPieceE.exit21: ; preds = %while.cond.outer.i3, %if.end.i16, %if.then.i18
  %retval.0.i7 = phi i32 [ -1, %if.then.i18 ], [ %div.i11, %if.end.i16 ], [ -1, %while.cond.outer.i3 ]
  call void @llvm.lifetime.end.p0(i64 16, ptr nonnull %ref.tmp.i2)
  %10 = load i8, ptr %fTypeId, align 2
  %idxprom10 = sext i8 %10 to i64
  %arrayidx11 = getelementptr inbounds [24 x i32], ptr @_ZN6icu_75L8gOffsetsE, i64 0, i64 %idxprom10
  %11 = load i32, ptr %arrayidx11, align 4
  %sub = sub nsw i32 %retval.0.i7, %11
  %conv12 = trunc i32 %sub to i16
  %fSubTypeId = getelementptr inbounds i8, ptr %this, i64 16
  store i16 %conv12, ptr %fSubTypeId, align 8
  ret void
}